     1 00000000                                 ; hello-os
     2 00000000                                 ; TAB=4
     3 00000000                                 
     4  = 0000000A                              CYLS	EQU		10				; 读取的柱面数，EQU声明常数
     5 00000000                                 
     6                                          		ORG		0x7c00			; 指明程序的装载地址
     7 00007C00                                 
     8 00007C00                                 ; 以下这段是标准FAT32格式软盘专用的代码
     9 00007C00                                 
    10 00007C00 EB 4E                           		JMP		entry
    11 00007C02 90                              		DB		0x90
    12 00007C03 48 41 52 49 42 4F 54 45         		DB		"HARIBOTE"		; 启动区的名称可以是任意字符串（8字节）
    13 00007C0B 0200                            		DW		512				; 每个扇区sector的大小，必须512字节
    14 00007C0D 01                              		DB		1				; 簇cluster的大小，必须为1个扇区
    15 00007C0E 0001                            		DW		1				; FAT的起始位置，一般从第一个扇区开始
    16 00007C10 02                              		DB		2				; FAT个数，必须为2
    17 00007C11 00E0                            		DW		224				; 根目录大小，一般设成224项
    18 00007C13 0B40                            		DW		2880			; 该磁盘的大小，必须是2880扇区
    19 00007C15 F0                              		DB		0xf0			; 磁盘种类，必须是0xf0
    20 00007C16 0009                            		DW		9				; FAT长度，必须是9扇区
    21 00007C18 0012                            		DW		18				; 1个磁道track有几个扇区，必须为18
    22 00007C1A 0002                            		DW		2				; 磁头数，必须为2
    23 00007C1C 00000000                        		DD		0				; 不使用分区，必须是0
    24 00007C20 00000B40                        		DD		2880			; 重写一次磁盘大小，2880个扇区
    25 00007C24 00 00 29                        		DB		0,0,0x29		; 意义不明，固定
    26 00007C27 FFFFFFFF                        		DD		0xffffffff		; 卷标号码（可能是）
    27 00007C2B 48 41 52 49 42 4F 54 45 4F 53   		DB		"HARIBOTEOS "	; 磁盘名称（11字节）
       00007C35 20 
    28 00007C36 46 41 54 31 32 20 20 20         		DB		"FAT12   "		; 磁盘格式名称（8字节）
    29 00007C3E 00 00 00 00 00 00 00 00 00 00   		RESB	18				; 先空出18字节
       00007C48 00 00 00 00 00 00 00 00 
    30 00007C50                                 
    31 00007C50                                 ; 程序主体
    32 00007C50                                 
    33 00007C50                                 entry:
    34 00007C50 B8 0000                         		MOV		AX,0			; 初始化寄存器
    35 00007C53 8E D0                           		MOV		SS,AX
    36 00007C55 BC 7C00                         		MOV		SP,0x7c00
    37 00007C58 8E D8                           		MOV		DS,AX
    38 00007C5A                                 
    39 00007C5A                                 ; 读磁盘
    40 00007C5A                                 
    41 00007C5A B8 0820                         		MOV		AX,0x0820
    42 00007C5D 8E C0                           		MOV		ES,AX			; [ES:BX]指定内存地址
    43 00007C5F B5 00                           		MOV		CH,0			; 柱面0
    44 00007C61 B6 00                           		MOV		DH,0			; 磁头0
    45 00007C63 B1 02                           		MOV		CL,2			; 扇区2
    46 00007C65                                 
    47 00007C65                                 readloop:
    48 00007C65 BE 0000                         		MOV		SI,0			; 记录失败次数
    49 00007C68                                 
    50 00007C68                                 retry:
    51 00007C68 B4 02                           		MOV		AH,0x02			; AH=0x02: 读盘（软/磁盘->内存）
    52 00007C6A B0 01                           		MOV		AL,1			; 1个扇区
    53 00007C6C BB 0000                         		MOV		BX,0
    54 00007C6F B2 00                           		MOV		DL,0x00			; A驱动器
    55 00007C71 CD 13                           		INT		0x13			; 调用磁盘BIOS
    56 00007C73 73 10                           		JNC		next			; 没出错的话跳转到next
    57 00007C75 83 C6 01                        		ADD		SI,1			; 错误计数加1
    58 00007C78 83 FE 05                        		CMP		SI,5			; 是否达到5次
    59 00007C7B 73 30                           		JAE		error			; 达到5次输出错误信息
    60 00007C7D B4 00                           		MOV		AH,0x00			; 以下3行命令复位软盘状态
    61 00007C7F B2 00                           		MOV		DL,0x00
    62 00007C81 CD 13                           		INT		0x13
    63 00007C83 EB E3                           		JMP 	retry			; 再次尝试
    64 00007C85                                 
    65 00007C85                                 next:
    66 00007C85 8C C0                           		MOV 	AX,ES			; 把内存地址后移0x20
    67 00007C87 05 0020                         		ADD 	AX,0x20			; 0x20=512/16，由于最终地址=ES*16+BX，因此相当于移动到下一扇区
    68 00007C8A 8E C0                           		MOV 	ES,AX			; 因为没有ADD ES,0x20指令，因此这里绕个弯
    69 00007C8C 80 C1 01                        		ADD 	CL,1			; CL加1
    70 00007C8F 80 F9 12                        		CMP 	CL,18			; 比较CL与18
    71 00007C92 76 D1                           		JBE 	readloop		; CL<=18时循环，BE=below or equal
    72 00007C94 B1 01                           		MOV 	CL,1			; 从扇区1开始
    73 00007C96 80 C6 01                        		ADD 	DH,1			; 磁头号加1
    74 00007C99 80 FE 02                        		CMP 	DH,2			; 磁头号和2进行比较
    75 00007C9C 72 C7                           		JB		readloop		; DH<2，跳转到readloop（读反面）
    76 00007C9E B6 00                           		MOV		DH,0			; 磁头号设为0（读正面）
    77 00007CA0 80 C5 01                        		ADD		CH,1			; 柱面位置加1
    78 00007CA3 80 FD 0A                        		CMP		CH,CYLS			; 是否读完10个柱面
    79 00007CA6 72 BD                           		JB		readloop		; CH<CYLS，跳转至readloop
    80 00007CA8 74 03                           		JE 		error
    81 00007CAA                                 
    82 00007CAA                                 ; 虽然读完了，但是因为没有要做的事情所以休眠
    83 00007CAA                                 
    84 00007CAA                                 fin:
    85 00007CAA F4                              		HLT						; 让CPU停止，等待命令
    86 00007CAB EB FD                           		JMP		fin				; 无限循环
    87 00007CAD                                 
    88 00007CAD                                 error:
    89 00007CAD BE 7CC2                         		MOV		SI,msg
    90 00007CB0                                 putloop:
    91 00007CB0 8A 04                           		MOV		AL,[SI]
    92 00007CB2 83 C6 01                        		ADD		SI,1			; 给SI加1
    93 00007CB5 3C 00                           		CMP		AL,0
    94 00007CB7 74 F1                           		JE		fin
    95 00007CB9 B4 0E                           		MOV		AH,0x0e			; 显示一个文字
    96 00007CBB BB 000F                         		MOV		BX,15			; 指定字符颜色
    97 00007CBE CD 10                           		INT		0x10			; 调用显卡BIOS
    98 00007CC0 EB EE                           		JMP		putloop
    99 00007CC2                                 msg:
   100 00007CC2 0A 0A                           		DB		0x0a, 0x0a		; 两个换行
   101 00007CC4 6C 6F 61 64 20 65 72 72 6F 72   		DB		"load error"
   102 00007CCE 0A                              		DB		0x0a			; 换行
   103 00007CCF 00                              		DB		0
   104 00007CD0                                 
   105 00007CD0 00 00 00 00 00 00 00 00 00 00   		RESB	0x7dfe-$		; 填充0x00，直到0x7dfe
       00007CDA 00 00 00 00 00 00 00 00 00 00 
       00007CE4 00 00 00 00 00 00 00 00 00 00 
       00007CEE 00 00 00 00 00 00 00 00 00 00 
       00007CF8 00 00 00 00 00 00 00 00 00 00 
       00007D02 00 00 00 00 00 00 00 00 00 00 
       00007D0C 00 00 00 00 00 00 00 00 00 00 
       00007D16 00 00 00 00 00 00 00 00 00 00 
       00007D20 00 00 00 00 00 00 00 00 00 00 
       00007D2A 00 00 00 00 00 00 00 00 00 00 
       00007D34 00 00 00 00 00 00 00 00 00 00 
       00007D3E 00 00 00 00 00 00 00 00 00 00 
       00007D48 00 00 00 00 00 00 00 00 00 00 
       00007D52 00 00 00 00 00 00 00 00 00 00 
       00007D5C 00 00 00 00 00 00 00 00 00 00 
       00007D66 00 00 00 00 00 00 00 00 00 00 
       00007D70 00 00 00 00 00 00 00 00 00 00 
       00007D7A 00 00 00 00 00 00 00 00 00 00 
       00007D84 00 00 00 00 00 00 00 00 00 00 
       00007D8E 00 00 00 00 00 00 00 00 00 00 
       00007D98 00 00 00 00 00 00 00 00 00 00 
       00007DA2 00 00 00 00 00 00 00 00 00 00 
       00007DAC 00 00 00 00 00 00 00 00 00 00 
       00007DB6 00 00 00 00 00 00 00 00 00 00 
       00007DC0 00 00 00 00 00 00 00 00 00 00 
       00007DCA 00 00 00 00 00 00 00 00 00 00 
       00007DD4 00 00 00 00 00 00 00 00 00 00 
       00007DDE 00 00 00 00 00 00 00 00 00 00 
       00007DE8 00 00 00 00 00 00 00 00 00 00 
       00007DF2 00 00 00 00 00 00 00 00 00 00 
       00007DFC 00 00 
   106 00007DFE                                 
   107 00007DFE 55 AA                           		DB		0x55, 0xaa
